; Function Attrs: mustprogress uwtable
define void @_ZN3gmx15NoseHooverGroup25broadcastCheckpointValuesEPK12gmx_domdec_t(ptr noundef nonnull align 8 dereferenceable(112) %0, ptr noundef %1) local_unnamed_addr #1 align 2 {
  %3 = getelementptr inbounds nuw i8, ptr %0, i64 24
  %4 = getelementptr inbounds nuw i8, ptr %0, i64 32
  %5 = load ptr, ptr %4, align 8, !tbaa !52
  %6 = load ptr, ptr %3, align 8, !tbaa !45
  %7 = ptrtoint ptr %5 to i64
  %8 = ptrtoint ptr %6 to i64
  %9 = sub i64 %7, %8
  %10 = trunc i64 %9 to i32
  %11 = and i32 %10, -4
  tail call void @_Z8dd_bcastPK12gmx_domdec_tiPv(ptr noundef %1, i32 noundef %11, ptr noundef %6)
  %12 = getelementptr inbounds nuw i8, ptr %0, i64 48
  %13 = getelementptr inbounds nuw i8, ptr %0, i64 56
  %14 = load ptr, ptr %13, align 8, !tbaa !52
  %15 = load ptr, ptr %12, align 8, !tbaa !45
  %16 = ptrtoint ptr %14 to i64
  %17 = ptrtoint ptr %15 to i64
  %18 = sub i64 %16, %17
  %19 = trunc i64 %18 to i32
  %20 = and i32 %19, -4
  tail call void @_Z8dd_bcastPK12gmx_domdec_tiPv(ptr noundef %1, i32 noundef %20, ptr noundef %15)
  %21 = getelementptr inbounds nuw i8, ptr %0, i64 104
  tail call void @_Z8dd_bcastPK12gmx_domdec_tiPv(ptr noundef %1, i32 noundef 4, ptr noundef nonnull %21)
  ret void
}